target datalayout = "e-m:e-p270:32:32-p271:32:32-p272:64:64-i64:64-i128:128-f80:128-n8:16:32:64-S128"
target triple = "x86_64-pc-linux-gnu"

%struct.ExprEvalStep = type { i64, ptr, ptr, %union.anon }
%union.anon = type { %struct.anon.23 }
%struct.anon.23 = type { ptr, ptr, i32, i32, ptr, ptr }
%struct.NullableDatum = type { i64, i8 }
%struct.Node = type { i32 }
%struct.ErrorSaveContext = type { i32, i8, i8, ptr }
%struct.Expr = type { i32 }
%struct.anon.46 = type { ptr }
%struct.JsonExprState = type { ptr, %struct.NullableDatum, %struct.NullableDatum, ptr, %struct.NullableDatum, %struct.NullableDatum, i32, i32, i32, i32, ptr, %struct.ErrorSaveContext }
%struct.JsonExpr = type { %struct.Expr, i32, ptr, ptr, ptr, ptr, ptr, ptr, ptr, ptr, ptr, i8, i8, i32, i8, i32, i32 }
%struct.ErrorData = type { i32, i8, i8, i8, i8, ptr, i32, ptr, ptr, ptr, i32, ptr, ptr, ptr, ptr, ptr, ptr, ptr, ptr, ptr, ptr, ptr, ptr, i32, i32, ptr, i32, ptr }

@.str.1 = private unnamed_addr constant [17 x i8] c"execExprInterp.c\00", align 1
@.str.25 = private unnamed_addr constant [58 x i8] c"could not coerce %s expression (%s) to the RETURNING type\00", align 1
@.str.26 = private unnamed_addr constant [9 x i8] c"ON ERROR\00", align 1
@.str.27 = private unnamed_addr constant [3 x i8] c"%s\00", align 1
@__func__.ExecEvalJsonCoercionFinish = private unnamed_addr constant [27 x i8] c"ExecEvalJsonCoercionFinish\00", align 1
@.str.28 = private unnamed_addr constant [9 x i8] c"ON EMPTY\00", align 1

; Function Attrs: inlinehint nounwind uwtable
define internal i64 @BoolGetDatum(i1 noundef zeroext %0) #2 {
  %2 = alloca i8, align 1
  %3 = zext i1 %0 to i8
  store i8 %3, ptr %2, align 1
  %4 = load i8, ptr %2, align 1, !range !7, !noundef !8
  %5 = trunc i8 %4 to i1
  %6 = select i1 %5, i32 1, i32 0
  %7 = sext i32 %6 to i64
  ret i64 %7
}

; Function Attrs: inlinehint nounwind uwtable
define internal zeroext i1 @DatumGetBool(i64 noundef %0) #2 {
  %2 = alloca i64, align 8
  store i64 %0, ptr %2, align 8
  %3 = load i64, ptr %2, align 8
  %4 = icmp ne i64 %3, 0
  ret i1 %4
}

; Function Attrs: nounwind uwtable
define dso_local void @ExecEvalJsonCoercionFinish(ptr noundef %0, ptr noundef %1) #0 {
  %3 = alloca ptr, align 8
  %4 = alloca ptr, align 8
  %5 = alloca ptr, align 8
  store ptr %0, ptr %3, align 8
  store ptr %1, ptr %4, align 8
  call void @llvm.lifetime.start.p0(i64 8, ptr %5) #11
  %6 = load ptr, ptr %4, align 8
  %7 = getelementptr inbounds nuw %struct.ExprEvalStep, ptr %6, i32 0, i32 3
  %8 = getelementptr inbounds nuw %struct.anon.46, ptr %7, i32 0, i32 0
  %9 = load ptr, ptr %8, align 8
  store ptr %9, ptr %5, align 8
  %10 = load ptr, ptr %5, align 8
  %11 = getelementptr inbounds nuw %struct.JsonExprState, ptr %10, i32 0, i32 11
  %12 = icmp ne ptr %11, null
  br i1 %12, label %13, label %108

13:                                               ; preds = %2
  %14 = load ptr, ptr %5, align 8
  %15 = getelementptr inbounds nuw %struct.JsonExprState, ptr %14, i32 0, i32 11
  %16 = getelementptr inbounds nuw %struct.Node, ptr %15, i32 0, i32 0
  %17 = load i32, ptr %16, align 8
  %18 = icmp eq i32 %17, 446
  br i1 %18, label %19, label %108

19:                                               ; preds = %13
  %20 = load ptr, ptr %5, align 8
  %21 = getelementptr inbounds nuw %struct.JsonExprState, ptr %20, i32 0, i32 11
  %22 = getelementptr inbounds nuw %struct.ErrorSaveContext, ptr %21, i32 0, i32 1
  %23 = load i8, ptr %22, align 4, !range !7, !noundef !8
  %24 = trunc i8 %23 to i1
  br i1 %24, label %25, label %108

25:                                               ; preds = %19
  %26 = load ptr, ptr %5, align 8
  %27 = getelementptr inbounds nuw %struct.JsonExprState, ptr %26, i32 0, i32 4
  %28 = getelementptr inbounds nuw %struct.NullableDatum, ptr %27, i32 0, i32 0
  %29 = load i64, ptr %28, align 8
  %30 = call zeroext i1 @DatumGetBool(i64 noundef %29)
  br i1 %30, label %31, label %56

31:                                               ; preds = %25
  br label %32

32:                                               ; preds = %31
  br i1 true, label %33, label %35

33:                                               ; preds = %32
  %34 = call zeroext i1 @errstart_cold(i32 noundef 21, ptr noundef null) #12
  br i1 %34, label %37, label %53

35:                                               ; preds = %32
  %36 = call zeroext i1 @errstart(i32 noundef 21, ptr noundef null)
  br i1 %36, label %37, label %53

37:                                               ; preds = %35, %33
  %38 = call i32 @errcode(i32 noundef 67141764)
  %39 = load ptr, ptr %5, align 8
  %40 = getelementptr inbounds nuw %struct.JsonExprState, ptr %39, i32 0, i32 0
  %41 = load ptr, ptr %40, align 8
  %42 = getelementptr inbounds nuw %struct.JsonExpr, ptr %41, i32 0, i32 10
  %43 = load ptr, ptr %42, align 8
  %44 = call ptr @GetJsonBehaviorValueString(ptr noundef %43)
  %45 = call i32 (ptr, ...) @errmsg(ptr noundef @.str.25, ptr noundef @.str.26, ptr noundef %44)
  %46 = load ptr, ptr %5, align 8
  %47 = getelementptr inbounds nuw %struct.JsonExprState, ptr %46, i32 0, i32 11
  %48 = getelementptr inbounds nuw %struct.ErrorSaveContext, ptr %47, i32 0, i32 3
  %49 = load ptr, ptr %48, align 8
  %50 = getelementptr inbounds nuw %struct.ErrorData, ptr %49, i32 0, i32 11
  %51 = load ptr, ptr %50, align 8
  %52 = call i32 (ptr, ...) @errdetail(ptr noundef @.str.27, ptr noundef %51)
  call void @errfinish(ptr noundef @.str.1, i32 noundef 5130, ptr noundef @__func__.ExecEvalJsonCoercionFinish)
  br label %53

53:                                               ; preds = %37, %35, %33
  unreachable

54:                                               ; No predecessors!
  br label %55

55:                                               ; preds = %54
  br label %88

56:                                               ; preds = %25
  %57 = load ptr, ptr %5, align 8
  %58 = getelementptr inbounds nuw %struct.JsonExprState, ptr %57, i32 0, i32 5
  %59 = getelementptr inbounds nuw %struct.NullableDatum, ptr %58, i32 0, i32 0
  %60 = load i64, ptr %59, align 8
  %61 = call zeroext i1 @DatumGetBool(i64 noundef %60)
  br i1 %61, label %62, label %87

62:                                               ; preds = %56
  br label %63

63:                                               ; preds = %62
  br i1 true, label %64, label %66

64:                                               ; preds = %63
  %65 = call zeroext i1 @errstart_cold(i32 noundef 21, ptr noundef null) #12
  br i1 %65, label %68, label %84

66:                                               ; preds = %63
  %67 = call zeroext i1 @errstart(i32 noundef 21, ptr noundef null)
  br i1 %67, label %68, label %84

68:                                               ; preds = %66, %64
  %69 = call i32 @errcode(i32 noundef 67141764)
  %70 = load ptr, ptr %5, align 8
  %71 = getelementptr inbounds nuw %struct.JsonExprState, ptr %70, i32 0, i32 0
  %72 = load ptr, ptr %71, align 8
  %73 = getelementptr inbounds nuw %struct.JsonExpr, ptr %72, i32 0, i32 9
  %74 = load ptr, ptr %73, align 8
  %75 = call ptr @GetJsonBehaviorValueString(ptr noundef %74)
  %76 = call i32 (ptr, ...) @errmsg(ptr noundef @.str.25, ptr noundef @.str.28, ptr noundef %75)
  %77 = load ptr, ptr %5, align 8
  %78 = getelementptr inbounds nuw %struct.JsonExprState, ptr %77, i32 0, i32 11
  %79 = getelementptr inbounds nuw %struct.ErrorSaveContext, ptr %78, i32 0, i32 3
  %80 = load ptr, ptr %79, align 8
  %81 = getelementptr inbounds nuw %struct.ErrorData, ptr %80, i32 0, i32 11
  %82 = load ptr, ptr %81, align 8
  %83 = call i32 (ptr, ...) @errdetail(ptr noundef @.str.27, ptr noundef %82)
  call void @errfinish(ptr noundef @.str.1, i32 noundef 5138, ptr noundef @__func__.ExecEvalJsonCoercionFinish)
  br label %84

84:                                               ; preds = %68, %66, %64
  unreachable

85:                                               ; No predecessors!
  br label %86

86:                                               ; preds = %85
  br label %87

87:                                               ; preds = %86, %56
  br label %88

88:                                               ; preds = %87, %55
  %89 = load ptr, ptr %4, align 8
  %90 = getelementptr inbounds nuw %struct.ExprEvalStep, ptr %89, i32 0, i32 1
  %91 = load ptr, ptr %90, align 8
  store i64 0, ptr %91, align 8
  %92 = load ptr, ptr %4, align 8
  %93 = getelementptr inbounds nuw %struct.ExprEvalStep, ptr %92, i32 0, i32 2
  %94 = load ptr, ptr %93, align 8
  store i8 1, ptr %94, align 1
  %95 = call i64 @BoolGetDatum(i1 noundef zeroext true)
  %96 = load ptr, ptr %5, align 8
  %97 = getelementptr inbounds nuw %struct.JsonExprState, ptr %96, i32 0, i32 4
  %98 = getelementptr inbounds nuw %struct.NullableDatum, ptr %97, i32 0, i32 0
  store i64 %95, ptr %98, align 8
  %99 = load ptr, ptr %5, align 8
  %100 = getelementptr inbounds nuw %struct.JsonExprState, ptr %99, i32 0, i32 11
  %101 = getelementptr inbounds nuw %struct.ErrorSaveContext, ptr %100, i32 0, i32 1
  store i8 0, ptr %101, align 4
  %102 = load ptr, ptr %5, align 8
  %103 = getelementptr inbounds nuw %struct.JsonExprState, ptr %102, i32 0, i32 11
  %104 = getelementptr inbounds nuw %struct.ErrorSaveContext, ptr %103, i32 0, i32 1
  store i8 0, ptr %104, align 4
  %105 = load ptr, ptr %5, align 8
  %106 = getelementptr inbounds nuw %struct.JsonExprState, ptr %105, i32 0, i32 11
  %107 = getelementptr inbounds nuw %struct.ErrorSaveContext, ptr %106, i32 0, i32 2
  store i8 1, ptr %107, align 1
  br label %108

108:                                              ; preds = %88, %19, %13, %2
  call void @llvm.lifetime.end.p0(i64 8, ptr %5) #11
  ret void
}