; Function Attrs: nounwind uwtable
define dso_local void @ExecEvalJsonCoercionFinish(ptr readnone captures(none) %0, ptr noundef readonly captures(none) %1) local_unnamed_addr #0 {
  %3 = getelementptr inbounds nuw i8, ptr %1, i64 24
  %4 = load ptr, ptr %3, align 8
  %5 = getelementptr inbounds nuw i8, ptr %4, i64 104
  %6 = load i32, ptr %5, align 8
  %7 = icmp eq i32 %6, 446
  br i1 %7, label %8, label %52

8:                                                ; preds = %2
  %9 = getelementptr inbounds nuw i8, ptr %4, i64 108
  %10 = load i8, ptr %9, align 4, !range !8, !noundef !9
  %11 = trunc nuw i8 %10 to i1
  br i1 %11, label %12, label %52

12:                                               ; preds = %8
  %13 = getelementptr inbounds nuw i8, ptr %4, i64 48
  %14 = load i64, ptr %13, align 8
  %.not = icmp eq i64 %14, 0
  br i1 %.not, label %29, label %15

15:                                               ; preds = %12
  %16 = tail call zeroext i1 @errstart_cold(i32 noundef 21, ptr noundef null) #19
  tail call void @llvm.assume(i1 %16)
  %17 = tail call i32 @errcode(i32 noundef 67141764) #18
  %18 = load ptr, ptr %4, align 8
  %19 = getelementptr inbounds nuw i8, ptr %18, i64 72
  %20 = load ptr, ptr %19, align 8
  %21 = getelementptr i8, ptr %20, i64 4
  %.val = load i32, ptr %21, align 4
  %22 = tail call fastcc ptr @GetJsonBehaviorValueString(i32 %.val)
  %23 = tail call i32 (ptr, ...) @errmsg(ptr noundef nonnull @.str.25, ptr noundef nonnull @.str.26, ptr noundef %22) #18
  %24 = getelementptr inbounds nuw i8, ptr %4, i64 112
  %25 = load ptr, ptr %24, align 8
  %26 = getelementptr inbounds nuw i8, ptr %25, i64 56
  %27 = load ptr, ptr %26, align 8
  %28 = tail call i32 (ptr, ...) @errdetail(ptr noundef nonnull @.str.27, ptr noundef %27) #18
  tail call void @errfinish(ptr noundef nonnull @.str.1, i32 noundef 5130, ptr noundef nonnull @__func__.ExecEvalJsonCoercionFinish) #18
  unreachable

29:                                               ; preds = %12
  %30 = getelementptr inbounds nuw i8, ptr %4, i64 64
  %31 = load i64, ptr %30, align 8
  %.not17 = icmp eq i64 %31, 0
  br i1 %.not17, label %46, label %32

32:                                               ; preds = %29
  %33 = tail call zeroext i1 @errstart_cold(i32 noundef 21, ptr noundef null) #19
  tail call void @llvm.assume(i1 %33)
  %34 = tail call i32 @errcode(i32 noundef 67141764) #18
  %35 = load ptr, ptr %4, align 8
  %36 = getelementptr inbounds nuw i8, ptr %35, i64 64
  %37 = load ptr, ptr %36, align 8
  %38 = getelementptr i8, ptr %37, i64 4
  %.val16 = load i32, ptr %38, align 4
  %39 = tail call fastcc ptr @GetJsonBehaviorValueString(i32 %.val16)
  %40 = tail call i32 (ptr, ...) @errmsg(ptr noundef nonnull @.str.25, ptr noundef nonnull @.str.28, ptr noundef %39) #18
  %41 = getelementptr inbounds nuw i8, ptr %4, i64 112
  %42 = load ptr, ptr %41, align 8
  %43 = getelementptr inbounds nuw i8, ptr %42, i64 56
  %44 = load ptr, ptr %43, align 8
  %45 = tail call i32 (ptr, ...) @errdetail(ptr noundef nonnull @.str.27, ptr noundef %44) #18
  tail call void @errfinish(ptr noundef nonnull @.str.1, i32 noundef 5138, ptr noundef nonnull @__func__.ExecEvalJsonCoercionFinish) #18
  unreachable

46:                                               ; preds = %29
  %47 = getelementptr inbounds nuw i8, ptr %1, i64 8
  %48 = load ptr, ptr %47, align 8
  store i64 0, ptr %48, align 8
  %49 = getelementptr inbounds nuw i8, ptr %1, i64 16
  %50 = load ptr, ptr %49, align 8
  store i8 1, ptr %50, align 1
  store i64 1, ptr %13, align 8
  store i8 0, ptr %9, align 4
  %51 = getelementptr inbounds nuw i8, ptr %4, i64 109
  store i8 1, ptr %51, align 1
  br label %52

52:                                               ; preds = %46, %8, %2
  ret void
}